target datalayout = "e-m:e-p270:32:32-p271:32:32-p272:64:64-i64:64-i128:128-f80:128-n8:16:32:64-S128"
target triple = "x86_64-pc-linux-gnu"

%struct.ecache_s = type { %struct.malloc_mutex_s, %struct.eset_s, %struct.eset_s, i32, i32, i8 }
%struct.eset_s = type { [4 x i64], [200 x %struct.eset_bin_s], [200 x %struct.eset_bin_stats_s], %struct.edata_list_inactive_t, %struct.atomic_zu_t, i32 }
%struct.eset_bin_s = type { %struct.edata_heap_t, %struct.edata_cmp_summary_s }
%struct.edata_heap_t = type { %struct.ph_s }
%struct.ph_s = type { ptr, i64 }
%struct.edata_cmp_summary_s = type { i64, i64 }
%struct.eset_bin_stats_s = type { %struct.atomic_zu_t, %struct.atomic_zu_t }
%struct.edata_list_inactive_t = type { %struct.anon.1 }
%struct.anon.1 = type { ptr }
%struct.malloc_mutex_s = type { %union.anon }
%union.anon = type { %struct.anon }
%struct.anon = type { %struct.mutex_prof_data_t, %union.pthread_mutex_t, %struct.atomic_b_t }
%struct.mutex_prof_data_t = type { %struct.nstime_t, %struct.nstime_t, i64, i64, i32, %struct.atomic_u32_t, i64, ptr, i64 }
%struct.nstime_t = type { i64 }
%struct.atomic_u32_t = type { i32 }
%union.pthread_mutex_t = type { %struct.__pthread_mutex_s }
%struct.__pthread_mutex_s = type { i32, i32, i32, i32, i32, i16, i16, %struct.__pthread_internal_list }
%struct.__pthread_internal_list = type { ptr, ptr }
%struct.atomic_b_t = type { i8 }
%struct.decay_s = type { %struct.malloc_mutex_s, i8, %struct.atomic_zd_t, %struct.nstime_t, %struct.nstime_t, i64, %struct.nstime_t, i64, i64, [200 x i64], i64 }
%struct.atomic_zd_t = type { i64 }
%struct.atomic_zu_t = type { i64 }
%struct.tsdn_s = type { %struct.tsd_s }
%struct.tsd_s = type { i8, i8, i64, i64, i64, i64, i64, i64, i64, i64, i64, i64, i64, i64, ptr, i64, i64, i64, ptr, ptr, %struct.ticker_geom_s, i8, %struct.tsd_binshards_s, %struct.tsd_link_t, i8, %struct.peak_s, %struct.activity_callback_thunk_s, %struct.tcache_slow_s, %struct.rtree_ctx_s, %struct.atomic_u8_t, i64, i64, i64, i64, %struct.tcache_s, %struct.witness_tsd_s }
%struct.ticker_geom_s = type { i32, i32 }
%struct.tsd_binshards_s = type { [39 x i8] }
%struct.tsd_link_t = type { ptr, ptr }
%struct.peak_s = type { i64, i64 }
%struct.activity_callback_thunk_s = type { ptr, ptr }
%struct.tcache_slow_s = type { %struct.anon.8, %struct.cache_bin_array_descriptor_s, ptr, i32, [39 x i8], [39 x i8], [39 x i8], ptr, ptr }
%struct.anon.8 = type { ptr, ptr }
%struct.cache_bin_array_descriptor_s = type { %struct.anon.9, ptr }
%struct.anon.9 = type { ptr, ptr }
%struct.rtree_ctx_s = type { [16 x %struct.rtree_ctx_cache_elm_s], [8 x %struct.rtree_ctx_cache_elm_s] }
%struct.rtree_ctx_cache_elm_s = type { i64, ptr }
%struct.atomic_u8_t = type { i8 }
%struct.tcache_s = type { ptr, [76 x %struct.cache_bin_s] }
%struct.cache_bin_s = type { ptr, %struct.cache_bin_stats_s, i16, i16, i16 }
%struct.cache_bin_stats_s = type { i64 }
%struct.witness_tsd_s = type { %struct.witness_list_t, i8 }
%struct.witness_list_t = type { ptr }

; Function Attrs: alwaysinline nounwind uwtable
define internal ptr @tsd_witness_tsdp_get_unsafe(ptr noundef %0) #4 {
  %2 = alloca ptr, align 8
  store ptr %0, ptr %2, align 8, !tbaa !96
  %3 = load ptr, ptr %2, align 8, !tbaa !96
  %4 = getelementptr inbounds nuw %struct.tsd_s, ptr %3, i32 0, i32 35
  ret ptr %4
}

; Function Attrs: alwaysinline nounwind uwtable
define internal zeroext i8 @tsd_state_get(ptr noundef %0) #4 {
  %2 = alloca ptr, align 8
  store ptr %0, ptr %2, align 8, !tbaa !96
  %3 = load ptr, ptr %2, align 8, !tbaa !96
  %4 = getelementptr inbounds nuw %struct.tsd_s, ptr %3, i32 0, i32 29
  %5 = load i8, ptr %4, align 8, !tbaa !103
  ret i8 %5
}

; Function Attrs: alwaysinline nounwind uwtable
define internal i32 @atomic_enum_to_builtin(i32 noundef %0) #4 {
  %2 = alloca i32, align 4
  %3 = alloca i32, align 4
  store i32 %0, ptr %3, align 4, !tbaa !24
  %4 = load i32, ptr %3, align 4, !tbaa !24
  switch i32 %4, label %10 [
    i32 0, label %5
    i32 1, label %6
    i32 2, label %7
    i32 3, label %8
    i32 4, label %9
  ]

5:                                                ; preds = %1
  store i32 0, ptr %2, align 4
  br label %12

6:                                                ; preds = %1
  store i32 2, ptr %2, align 4
  br label %12

7:                                                ; preds = %1
  store i32 3, ptr %2, align 4
  br label %12

8:                                                ; preds = %1
  store i32 4, ptr %2, align 4
  br label %12

9:                                                ; preds = %1
  store i32 5, ptr %2, align 4
  br label %12

10:                                               ; preds = %1
  br label %11

11:                                               ; preds = %10
  unreachable

12:                                               ; preds = %5, %6, %7, %8, %9
  %13 = load i32, ptr %2, align 4
  ret i32 %13
}

; Function Attrs: alwaysinline nounwind uwtable
define internal ptr @tsd_witness_tsdp_get(ptr noundef %0) #4 {
  %2 = alloca ptr, align 8
  %3 = alloca i8, align 1
  store ptr %0, ptr %2, align 8, !tbaa !96
  call void @llvm.lifetime.start.p0(i64 1, ptr %3) #8
  %4 = load ptr, ptr %2, align 8, !tbaa !96
  %5 = call zeroext i8 @tsd_state_get(ptr noundef %4)
  store i8 %5, ptr %3, align 1, !tbaa !103
  br label %6

6:                                                ; preds = %1
  br label %7

7:                                                ; preds = %6
  br label %8

8:                                                ; preds = %7
  %9 = load ptr, ptr %2, align 8, !tbaa !96
  %10 = call ptr @tsd_witness_tsdp_get_unsafe(ptr noundef %9)
  call void @llvm.lifetime.end.p0(i64 1, ptr %3) #8
  ret ptr %10
}

; Function Attrs: alwaysinline nounwind uwtable
define internal ptr @tsdn_tsd(ptr noundef %0) #4 {
  %2 = alloca ptr, align 8
  store ptr %0, ptr %2, align 8, !tbaa !4
  br label %3

3:                                                ; preds = %1
  br label %4

4:                                                ; preds = %3
  %5 = load ptr, ptr %2, align 8, !tbaa !4
  %6 = getelementptr inbounds nuw %struct.tsdn_s, ptr %5, i32 0, i32 0
  ret ptr %6
}

; Function Attrs: alwaysinline nounwind uwtable
define internal zeroext i1 @tsdn_null(ptr noundef %0) #4 {
  %2 = alloca ptr, align 8
  store ptr %0, ptr %2, align 8, !tbaa !4
  %3 = load ptr, ptr %2, align 8, !tbaa !4
  %4 = icmp eq ptr %3, null
  ret i1 %4
}

; Function Attrs: alwaysinline nounwind uwtable
define internal i64 @atomic_load_zd(ptr noundef %0, i32 noundef %1) #4 {
  %3 = alloca ptr, align 8
  %4 = alloca i32, align 4
  %5 = alloca i64, align 8
  store ptr %0, ptr %3, align 8, !tbaa !17
  store i32 %1, ptr %4, align 4, !tbaa !24
  call void @llvm.lifetime.start.p0(i64 8, ptr %5) #8
  %6 = load ptr, ptr %3, align 8, !tbaa !17
  %7 = getelementptr inbounds nuw %struct.atomic_zd_t, ptr %6, i32 0, i32 0
  %8 = load i32, ptr %4, align 4, !tbaa !24
  %9 = call i32 @atomic_enum_to_builtin(i32 noundef %8)
  switch i32 %9, label %10 [
    i32 1, label %12
    i32 2, label %12
    i32 5, label %14
  ]

10:                                               ; preds = %2
  %11 = load atomic i64, ptr %7 monotonic, align 8
  store i64 %11, ptr %5, align 8
  br label %16

12:                                               ; preds = %2, %2
  %13 = load atomic i64, ptr %7 acquire, align 8
  store i64 %13, ptr %5, align 8
  br label %16

14:                                               ; preds = %2
  %15 = load atomic i64, ptr %7 seq_cst, align 8
  store i64 %15, ptr %5, align 8
  br label %16

16:                                               ; preds = %14, %12, %10
  %17 = load i64, ptr %5, align 8, !tbaa !18
  call void @llvm.lifetime.end.p0(i64 8, ptr %5) #8
  ret i64 %17
}

; Function Attrs: inlinehint nounwind uwtable
define internal void @witness_assert_owner(ptr noundef %0, ptr noundef %1) #2 {
  %3 = alloca ptr, align 8
  %4 = alloca ptr, align 8
  store ptr %0, ptr %3, align 8, !tbaa !92
  store ptr %1, ptr %4, align 8, !tbaa !94
  ret void
}

; Function Attrs: alwaysinline nounwind uwtable
define internal ptr @tsdn_witness_tsdp_get(ptr noundef %0) #4 {
  %2 = alloca ptr, align 8
  %3 = alloca ptr, align 8
  %4 = alloca ptr, align 8
  store ptr %0, ptr %3, align 8, !tbaa !4
  %5 = load ptr, ptr %3, align 8, !tbaa !4
  %6 = call zeroext i1 @tsdn_null(ptr noundef %5)
  br i1 %6, label %7, label %8

7:                                                ; preds = %1
  store ptr null, ptr %2, align 8
  br label %13

8:                                                ; preds = %1
  call void @llvm.lifetime.start.p0(i64 8, ptr %4) #8
  %9 = load ptr, ptr %3, align 8, !tbaa !4
  %10 = call ptr @tsdn_tsd(ptr noundef %9)
  store ptr %10, ptr %4, align 8, !tbaa !96
  %11 = load ptr, ptr %4, align 8, !tbaa !96
  %12 = call ptr @tsd_witness_tsdp_get(ptr noundef %11)
  store ptr %12, ptr %2, align 8
  call void @llvm.lifetime.end.p0(i64 8, ptr %4) #8
  br label %13

13:                                               ; preds = %8, %7
  %14 = load ptr, ptr %2, align 8
  ret ptr %14
}

; Function Attrs: nounwind uwtable
define internal void @pac_decay_try_purge(ptr noundef %0, ptr noundef %1, ptr noundef %2, ptr noundef %3, ptr noundef %4, i64 noundef %5, i64 noundef %6) #0 {
  %8 = alloca ptr, align 8
  %9 = alloca ptr, align 8
  %10 = alloca ptr, align 8
  %11 = alloca ptr, align 8
  %12 = alloca ptr, align 8
  %13 = alloca i64, align 8
  %14 = alloca i64, align 8
  store ptr %0, ptr %8, align 8, !tbaa !4
  store ptr %1, ptr %9, align 8, !tbaa !9
  store ptr %2, ptr %10, align 8, !tbaa !67
  store ptr %3, ptr %11, align 8, !tbaa !69
  store ptr %4, ptr %12, align 8, !tbaa !71
  store i64 %5, ptr %13, align 8, !tbaa !18
  store i64 %6, ptr %14, align 8, !tbaa !18
  %15 = load i64, ptr %13, align 8, !tbaa !18
  %16 = load i64, ptr %14, align 8, !tbaa !18
  %17 = icmp ugt i64 %15, %16
  br i1 %17, label %18, label %28

18:                                               ; preds = %7
  %19 = load ptr, ptr %8, align 8, !tbaa !4
  %20 = load ptr, ptr %9, align 8, !tbaa !9
  %21 = load ptr, ptr %10, align 8, !tbaa !67
  %22 = load ptr, ptr %11, align 8, !tbaa !69
  %23 = load ptr, ptr %12, align 8, !tbaa !71
  %24 = load i64, ptr %14, align 8, !tbaa !18
  %25 = load i64, ptr %13, align 8, !tbaa !18
  %26 = load i64, ptr %14, align 8, !tbaa !18
  %27 = sub i64 %25, %26
  call void @pac_decay_to_limit(ptr noundef %19, ptr noundef %20, ptr noundef %21, ptr noundef %22, ptr noundef %23, i1 noundef zeroext false, i64 noundef %24, i64 noundef %27)
  br label %28

28:                                               ; preds = %18, %7
  ret void
}

; Function Attrs: inlinehint nounwind uwtable
define internal i64 @decay_npages_limit_get(ptr noundef %0) #2 {
  %2 = alloca ptr, align 8
  store ptr %0, ptr %2, align 8, !tbaa !67
  %3 = load ptr, ptr %2, align 8, !tbaa !67
  %4 = getelementptr inbounds nuw %struct.decay_s, ptr %3, i32 0, i32 7
  %5 = load i64, ptr %4, align 8, !tbaa !74
  ret i64 %5
}

; Function Attrs: inlinehint nounwind uwtable
define internal i64 @ecache_npages_get(ptr noundef %0) #2 {
  %2 = alloca ptr, align 8
  store ptr %0, ptr %2, align 8, !tbaa !71
  %3 = load ptr, ptr %2, align 8, !tbaa !71
  %4 = getelementptr inbounds nuw %struct.ecache_s, ptr %3, i32 0, i32 1
  %5 = call i64 @je_eset_npages_get(ptr noundef %4)
  %6 = load ptr, ptr %2, align 8, !tbaa !71
  %7 = getelementptr inbounds nuw %struct.ecache_s, ptr %6, i32 0, i32 2
  %8 = call i64 @je_eset_npages_get(ptr noundef %7)
  %9 = add i64 %5, %8
  ret i64 %9
}

; Function Attrs: inlinehint nounwind uwtable
define internal i64 @decay_ms_read(ptr noundef %0) #2 {
  %2 = alloca ptr, align 8
  store ptr %0, ptr %2, align 8, !tbaa !67
  %3 = load ptr, ptr %2, align 8, !tbaa !67
  %4 = getelementptr inbounds nuw %struct.decay_s, ptr %3, i32 0, i32 2
  %5 = call i64 @atomic_load_zd(ptr noundef %4, i32 noundef 0)
  ret i64 %5
}

; Function Attrs: inlinehint nounwind uwtable
define internal void @malloc_mutex_assert_owner(ptr noundef %0, ptr noundef %1) #2 {
  %3 = alloca ptr, align 8
  %4 = alloca ptr, align 8
  store ptr %0, ptr %3, align 8, !tbaa !4
  store ptr %1, ptr %4, align 8, !tbaa !22
  %5 = load ptr, ptr %3, align 8, !tbaa !4
  %6 = call ptr @tsdn_witness_tsdp_get(ptr noundef %5)
  %7 = load ptr, ptr %4, align 8, !tbaa !22
  %8 = getelementptr inbounds nuw %struct.malloc_mutex_s, ptr %7, i32 0, i32 0
  call void @witness_assert_owner(ptr noundef %6, ptr noundef %8)
  ret void
}

; Function Attrs: nounwind uwtable
define hidden zeroext i1 @je_pac_maybe_decay_purge(ptr noundef %0, ptr noundef %1, ptr noundef %2, ptr noundef %3, ptr noundef %4, i32 noundef %5) #0 {
  %7 = alloca i1, align 1
  %8 = alloca ptr, align 8
  %9 = alloca ptr, align 8
  %10 = alloca ptr, align 8
  %11 = alloca ptr, align 8
  %12 = alloca ptr, align 8
  %13 = alloca i32, align 4
  %14 = alloca i64, align 8
  %15 = alloca i32, align 4
  %16 = alloca %struct.nstime_t, align 8
  %17 = alloca i64, align 8
  %18 = alloca i8, align 1
  %19 = alloca i64, align 8
  store ptr %0, ptr %8, align 8, !tbaa !4
  store ptr %1, ptr %9, align 8, !tbaa !9
  store ptr %2, ptr %10, align 8, !tbaa !67
  store ptr %3, ptr %11, align 8, !tbaa !69
  store ptr %4, ptr %12, align 8, !tbaa !71
  store i32 %5, ptr %13, align 4, !tbaa !24
  %20 = load ptr, ptr %8, align 8, !tbaa !4
  %21 = load ptr, ptr %10, align 8, !tbaa !67
  %22 = getelementptr inbounds nuw %struct.decay_s, ptr %21, i32 0, i32 0
  call void @malloc_mutex_assert_owner(ptr noundef %20, ptr noundef %22)
  call void @llvm.lifetime.start.p0(i64 8, ptr %14) #8
  %23 = load ptr, ptr %10, align 8, !tbaa !67
  %24 = call i64 @decay_ms_read(ptr noundef %23)
  store i64 %24, ptr %14, align 8, !tbaa !18
  %25 = load i64, ptr %14, align 8, !tbaa !18
  %26 = icmp sle i64 %25, 0
  br i1 %26, label %27, label %39

27:                                               ; preds = %6
  %28 = load i64, ptr %14, align 8, !tbaa !18
  %29 = icmp eq i64 %28, 0
  br i1 %29, label %30, label %38

30:                                               ; preds = %27
  %31 = load ptr, ptr %8, align 8, !tbaa !4
  %32 = load ptr, ptr %9, align 8, !tbaa !9
  %33 = load ptr, ptr %10, align 8, !tbaa !67
  %34 = load ptr, ptr %11, align 8, !tbaa !69
  %35 = load ptr, ptr %12, align 8, !tbaa !71
  %36 = load ptr, ptr %12, align 8, !tbaa !71
  %37 = call i64 @ecache_npages_get(ptr noundef %36)
  call void @pac_decay_to_limit(ptr noundef %31, ptr noundef %32, ptr noundef %33, ptr noundef %34, ptr noundef %35, i1 noundef zeroext false, i64 noundef 0, i64 noundef %37)
  br label %38

38:                                               ; preds = %30, %27
  store i1 false, ptr %7, align 1
  store i32 1, ptr %15, align 4
  br label %67

39:                                               ; preds = %6
  call void @llvm.lifetime.start.p0(i64 8, ptr %16) #8
  call void @je_nstime_init_update(ptr noundef %16)
  call void @llvm.lifetime.start.p0(i64 8, ptr %17) #8
  %40 = load ptr, ptr %12, align 8, !tbaa !71
  %41 = call i64 @ecache_npages_get(ptr noundef %40)
  store i64 %41, ptr %17, align 8, !tbaa !18
  call void @llvm.lifetime.start.p0(i64 1, ptr %18) #8
  %42 = load ptr, ptr %10, align 8, !tbaa !67
  %43 = load i64, ptr %17, align 8, !tbaa !18
  %44 = call zeroext i1 @je_decay_maybe_advance_epoch(ptr noundef %42, ptr noundef %16, i64 noundef %43)
  %45 = zext i1 %44 to i8
  store i8 %45, ptr %18, align 1, !tbaa !53
  %46 = load i32, ptr %13, align 4, !tbaa !24
  %47 = icmp eq i32 %46, 0
  br i1 %47, label %54, label %48

48:                                               ; preds = %39
  %49 = load i8, ptr %18, align 1, !tbaa !53, !range !54, !noundef !55
  %50 = trunc i8 %49 to i1
  br i1 %50, label %51, label %64

51:                                               ; preds = %48
  %52 = load i32, ptr %13, align 4, !tbaa !24
  %53 = icmp eq i32 %52, 2
  br i1 %53, label %54, label %64

54:                                               ; preds = %51, %39
  call void @llvm.lifetime.start.p0(i64 8, ptr %19) #8
  %55 = load ptr, ptr %10, align 8, !tbaa !67
  %56 = call i64 @decay_npages_limit_get(ptr noundef %55)
  store i64 %56, ptr %19, align 8, !tbaa !18
  %57 = load ptr, ptr %8, align 8, !tbaa !4
  %58 = load ptr, ptr %9, align 8, !tbaa !9
  %59 = load ptr, ptr %10, align 8, !tbaa !67
  %60 = load ptr, ptr %11, align 8, !tbaa !69
  %61 = load ptr, ptr %12, align 8, !tbaa !71
  %62 = load i64, ptr %17, align 8, !tbaa !18
  %63 = load i64, ptr %19, align 8, !tbaa !18
  call void @pac_decay_try_purge(ptr noundef %57, ptr noundef %58, ptr noundef %59, ptr noundef %60, ptr noundef %61, i64 noundef %62, i64 noundef %63)
  call void @llvm.lifetime.end.p0(i64 8, ptr %19) #8
  br label %64

64:                                               ; preds = %54, %51, %48
  %65 = load i8, ptr %18, align 1, !tbaa !53, !range !54, !noundef !55
  %66 = trunc i8 %65 to i1
  store i1 %66, ptr %7, align 1
  store i32 1, ptr %15, align 4
  call void @llvm.lifetime.end.p0(i64 1, ptr %18) #8
  call void @llvm.lifetime.end.p0(i64 8, ptr %17) #8
  call void @llvm.lifetime.end.p0(i64 8, ptr %16) #8
  br label %67

67:                                               ; preds = %64, %38
  call void @llvm.lifetime.end.p0(i64 8, ptr %14) #8
  %68 = load i1, ptr %7, align 1
  ret i1 %68
}