; Function Attrs: nounwind uwtable
define hidden zeroext i1 @je_pac_maybe_decay_purge(ptr noundef %0, ptr noundef %1, ptr noundef %2, ptr noundef captures(none) %3, ptr noundef %4, i32 noundef %5) local_unnamed_addr #0 {
  %7 = alloca %struct.nstime_t, align 8
  %8 = getelementptr inbounds nuw i8, ptr %2, i64 120
  %9 = load atomic i64, ptr %8 monotonic, align 8
  %10 = icmp slt i64 %9, 1
  br i1 %10, label %11, label %19

11:                                               ; preds = %6
  %12 = icmp eq i64 %9, 0
  br i1 %12, label %13, label %33

13:                                               ; preds = %11
  %14 = getelementptr inbounds nuw i8, ptr %4, i64 112
  %15 = tail call i64 @je_eset_npages_get(ptr noundef nonnull %14) #9
  %16 = getelementptr inbounds nuw i8, ptr %4, i64 9768
  %17 = tail call i64 @je_eset_npages_get(ptr noundef nonnull %16) #9
  %18 = add i64 %17, %15
  tail call fastcc void @pac_decay_to_limit(ptr noundef %0, ptr noundef %1, ptr noundef nonnull %2, ptr noundef %3, ptr noundef %4, i1 noundef zeroext false, i64 noundef 0, i64 noundef %18)
  br label %33

19:                                               ; preds = %6
  call void @llvm.lifetime.start.p0(i64 8, ptr nonnull %7) #9
  call void @je_nstime_init_update(ptr noundef nonnull %7) #9
  %20 = getelementptr inbounds nuw i8, ptr %4, i64 112
  %21 = call i64 @je_eset_npages_get(ptr noundef nonnull %20) #9
  %22 = getelementptr inbounds nuw i8, ptr %4, i64 9768
  %23 = call i64 @je_eset_npages_get(ptr noundef nonnull %22) #9
  %24 = add i64 %23, %21
  %25 = call zeroext i1 @je_decay_maybe_advance_epoch(ptr noundef nonnull %2, ptr noundef nonnull %7, i64 noundef %24) #9
  %26 = icmp eq i32 %5, 0
  %27 = icmp eq i32 %5, 2
  %or.cond = and i1 %27, %25
  %or.cond29 = select i1 %26, i1 true, i1 %or.cond
  br i1 %or.cond29, label %28, label %pac_decay_try_purge.exit

28:                                               ; preds = %19
  %29 = getelementptr i8, ptr %2, i64 160
  %.val = load i64, ptr %29, align 8, !tbaa !66
  %30 = icmp ugt i64 %24, %.val
  br i1 %30, label %31, label %pac_decay_try_purge.exit

31:                                               ; preds = %28
  %32 = sub nuw i64 %24, %.val
  call fastcc void @pac_decay_to_limit(ptr noundef %0, ptr noundef %1, ptr noundef nonnull %2, ptr noundef %3, ptr noundef nonnull %4, i1 noundef zeroext false, i64 noundef %.val, i64 noundef %32)
  br label %pac_decay_try_purge.exit

pac_decay_try_purge.exit:                         ; preds = %31, %28, %19
  call void @llvm.lifetime.end.p0(i64 8, ptr nonnull %7) #9
  br label %33

33:                                               ; preds = %11, %13, %pac_decay_try_purge.exit
  %.0 = phi i1 [ %25, %pac_decay_try_purge.exit ], [ false, %13 ], [ false, %11 ]
  ret i1 %.0
}